target datalayout = "e-m:e-p270:32:32-p271:32:32-p272:64:64-i64:64-i128:128-f80:128-n8:16:32:64-S128"
target triple = "x86_64-pc-linux-gnu"

%struct.stbtt_fontinfo = type { ptr, ptr, i32, i32, i32, i32, i32, i32, i32, i32, i32, i32 }

; Function Attrs: mustprogress nounwind uwtable
define internal noundef signext i16 @_ZL7ttSHORTPKh(ptr noundef %0) #1 {
  %2 = alloca ptr, align 8
  store ptr %0, ptr %2, align 8
  %3 = load ptr, ptr %2, align 8
  %4 = getelementptr inbounds i8, ptr %3, i64 0
  %5 = load i8, ptr %4, align 1
  %6 = zext i8 %5 to i32
  %7 = mul nsw i32 %6, 256
  %8 = load ptr, ptr %2, align 8
  %9 = getelementptr inbounds i8, ptr %8, i64 1
  %10 = load i8, ptr %9, align 1
  %11 = zext i8 %10 to i32
  %12 = add nsw i32 %7, %11
  %13 = trunc i32 %12 to i16
  ret i16 %13
}

; Function Attrs: mustprogress uwtable
define dso_local void @stbtt_GetFontVMetrics(ptr noundef %0, ptr noundef %1, ptr noundef %2, ptr noundef %3) #0 {
  %5 = alloca ptr, align 8
  %6 = alloca ptr, align 8
  %7 = alloca ptr, align 8
  %8 = alloca ptr, align 8
  store ptr %0, ptr %5, align 8
  store ptr %1, ptr %6, align 8
  store ptr %2, ptr %7, align 8
  store ptr %3, ptr %8, align 8
  %9 = load ptr, ptr %6, align 8
  %10 = icmp ne ptr %9, null
  br i1 %10, label %11, label %24

11:                                               ; preds = %4
  %12 = load ptr, ptr %5, align 8
  %13 = getelementptr inbounds %struct.stbtt_fontinfo, ptr %12, i32 0, i32 1
  %14 = load ptr, ptr %13, align 8
  %15 = load ptr, ptr %5, align 8
  %16 = getelementptr inbounds %struct.stbtt_fontinfo, ptr %15, i32 0, i32 7
  %17 = load i32, ptr %16, align 4
  %18 = sext i32 %17 to i64
  %19 = getelementptr inbounds i8, ptr %14, i64 %18
  %20 = getelementptr inbounds i8, ptr %19, i64 4
  %21 = call noundef signext i16 @_ZL7ttSHORTPKh(ptr noundef %20)
  %22 = sext i16 %21 to i32
  %23 = load ptr, ptr %6, align 8
  store i32 %22, ptr %23, align 4
  br label %24

24:                                               ; preds = %11, %4
  %25 = load ptr, ptr %7, align 8
  %26 = icmp ne ptr %25, null
  br i1 %26, label %27, label %40

27:                                               ; preds = %24
  %28 = load ptr, ptr %5, align 8
  %29 = getelementptr inbounds %struct.stbtt_fontinfo, ptr %28, i32 0, i32 1
  %30 = load ptr, ptr %29, align 8
  %31 = load ptr, ptr %5, align 8
  %32 = getelementptr inbounds %struct.stbtt_fontinfo, ptr %31, i32 0, i32 7
  %33 = load i32, ptr %32, align 4
  %34 = sext i32 %33 to i64
  %35 = getelementptr inbounds i8, ptr %30, i64 %34
  %36 = getelementptr inbounds i8, ptr %35, i64 6
  %37 = call noundef signext i16 @_ZL7ttSHORTPKh(ptr noundef %36)
  %38 = sext i16 %37 to i32
  %39 = load ptr, ptr %7, align 8
  store i32 %38, ptr %39, align 4
  br label %40

40:                                               ; preds = %27, %24
  %41 = load ptr, ptr %8, align 8
  %42 = icmp ne ptr %41, null
  br i1 %42, label %43, label %56

43:                                               ; preds = %40
  %44 = load ptr, ptr %5, align 8
  %45 = getelementptr inbounds %struct.stbtt_fontinfo, ptr %44, i32 0, i32 1
  %46 = load ptr, ptr %45, align 8
  %47 = load ptr, ptr %5, align 8
  %48 = getelementptr inbounds %struct.stbtt_fontinfo, ptr %47, i32 0, i32 7
  %49 = load i32, ptr %48, align 4
  %50 = sext i32 %49 to i64
  %51 = getelementptr inbounds i8, ptr %46, i64 %50
  %52 = getelementptr inbounds i8, ptr %51, i64 8
  %53 = call noundef signext i16 @_ZL7ttSHORTPKh(ptr noundef %52)
  %54 = sext i16 %53 to i32
  %55 = load ptr, ptr %8, align 8
  store i32 %54, ptr %55, align 4
  br label %56

56:                                               ; preds = %43, %40
  ret void
}