; Function Attrs: mustprogress nofree norecurse nosync nounwind willreturn memory(read, argmem: readwrite, inaccessiblemem: none) uwtable
define dso_local void @stbtt_GetFontVMetrics(ptr noundef readonly captures(none) %0, ptr noundef writeonly %1, ptr noundef writeonly %2, ptr noundef writeonly %3) local_unnamed_addr #4 {
  %.not = icmp eq ptr %1, null
  br i1 %.not, label %19, label %5

5:                                                ; preds = %4
  %6 = getelementptr inbounds nuw i8, ptr %0, i64 8
  %7 = load ptr, ptr %6, align 8
  %8 = getelementptr inbounds nuw i8, ptr %0, i64 36
  %9 = load i32, ptr %8, align 4
  %10 = sext i32 %9 to i64
  %11 = getelementptr inbounds i8, ptr %7, i64 %10
  %12 = getelementptr inbounds nuw i8, ptr %11, i64 4
  %.val19 = load i8, ptr %12, align 1
  %13 = getelementptr i8, ptr %11, i64 5
  %.val20 = load i8, ptr %13, align 1
  %14 = zext i8 %.val19 to i16
  %15 = shl nuw i16 %14, 8
  %16 = zext i8 %.val20 to i16
  %17 = or disjoint i16 %15, %16
  %18 = sext i16 %17 to i32
  store i32 %18, ptr %1, align 4
  br label %19

19:                                               ; preds = %5, %4
  %.not14 = icmp eq ptr %2, null
  br i1 %.not14, label %34, label %20

20:                                               ; preds = %19
  %21 = getelementptr inbounds nuw i8, ptr %0, i64 8
  %22 = load ptr, ptr %21, align 8
  %23 = getelementptr inbounds nuw i8, ptr %0, i64 36
  %24 = load i32, ptr %23, align 4
  %25 = sext i32 %24 to i64
  %26 = getelementptr inbounds i8, ptr %22, i64 %25
  %27 = getelementptr inbounds nuw i8, ptr %26, i64 6
  %.val17 = load i8, ptr %27, align 1
  %28 = getelementptr i8, ptr %26, i64 7
  %.val18 = load i8, ptr %28, align 1
  %29 = zext i8 %.val17 to i16
  %30 = shl nuw i16 %29, 8
  %31 = zext i8 %.val18 to i16
  %32 = or disjoint i16 %30, %31
  %33 = sext i16 %32 to i32
  store i32 %33, ptr %2, align 4
  br label %34

34:                                               ; preds = %20, %19
  %.not15 = icmp eq ptr %3, null
  br i1 %.not15, label %49, label %35

35:                                               ; preds = %34
  %36 = getelementptr inbounds nuw i8, ptr %0, i64 8
  %37 = load ptr, ptr %36, align 8
  %38 = getelementptr inbounds nuw i8, ptr %0, i64 36
  %39 = load i32, ptr %38, align 4
  %40 = sext i32 %39 to i64
  %41 = getelementptr inbounds i8, ptr %37, i64 %40
  %42 = getelementptr inbounds nuw i8, ptr %41, i64 8
  %.val = load i8, ptr %42, align 1
  %43 = getelementptr i8, ptr %41, i64 9
  %.val16 = load i8, ptr %43, align 1
  %44 = zext i8 %.val to i16
  %45 = shl nuw i16 %44, 8
  %46 = zext i8 %.val16 to i16
  %47 = or disjoint i16 %45, %46
  %48 = sext i16 %47 to i32
  store i32 %48, ptr %3, align 4
  br label %49

49:                                               ; preds = %35, %34
  ret void
}